; Function Attrs: nounwind uwtable
define dso_local i32 @git_config_int(ptr noundef %0, ptr noundef %1, ptr noundef %2) local_unnamed_addr #0 {
  %4 = alloca i32, align 4
  call void @llvm.lifetime.start.p0(i64 4, ptr nonnull %4) #30
  %5 = call i32 @git_parse_int(ptr noundef %1, ptr noundef nonnull %4) #30
  %.not = icmp eq i32 %5, 0
  br i1 %.not, label %6, label %7

6:                                                ; preds = %3
  call fastcc void @die_bad_number(ptr noundef %0, ptr noundef %1, ptr noundef %2) #32
  unreachable

7:                                                ; preds = %3
  %8 = load i32, ptr %4, align 4, !tbaa !14
  call void @llvm.lifetime.end.p0(i64 4, ptr nonnull %4) #30
  ret i32 %8
}